; Function Attrs: nounwind uwtable
define internal void @process_loadable_libraries(ptr noundef %0, ptr noundef %1, ptr noundef captures(none) %2) #0 {
  %4 = load ptr, ptr %2, align 8
  %5 = load ptr, ptr getelementptr inbounds nuw (i8, ptr @old_cluster, i64 120), align 8
  %6 = ptrtoint ptr %0 to i64
  %7 = ptrtoint ptr %5 to i64
  %8 = sub i64 %6, %7
  %9 = sdiv exact i64 %8, 134
  %10 = getelementptr inbounds i8, ptr %4, i64 %9
  store ptr %1, ptr %10, align 8
  %11 = tail call i32 @PQntuples(ptr noundef %1) #9
  %12 = getelementptr inbounds nuw i8, ptr %2, i64 8
  %13 = load i32, ptr %12, align 8
  %14 = add i32 %13, %11
  store i32 %14, ptr %12, align 8
  ret void
}